; Function Attrs: nofree nounwind uwtable
define void @Abc_NtkPrintCiLevels(ptr noundef readonly captures(none) %0) local_unnamed_addr #7 {
  %2 = getelementptr i8, ptr %0, i64 56
  %.val7 = load ptr, ptr %2, align 8
  %3 = getelementptr i8, ptr %.val7, i64 4
  %.val.val8 = load i32, ptr %3, align 4
  %4 = icmp sgt i32 %.val.val8, 0
  br i1 %4, label %.lr.ph, label %.critedge

.lr.ph:                                           ; preds = %1, %.lr.ph
  %indvars.iv = phi i64 [ %indvars.iv.next, %.lr.ph ], [ 0, %1 ]
  %.val10 = phi ptr [ %.val, %.lr.ph ], [ %.val7, %1 ]
  %5 = getelementptr i8, ptr %.val10, i64 8
  %.val6.val = load ptr, ptr %5, align 8
  %6 = getelementptr inbounds nuw ptr, ptr %.val6.val, i64 %indvars.iv
  %7 = load ptr, ptr %6, align 8
  %8 = getelementptr inbounds nuw i8, ptr %7, i64 20
  %9 = load i32, ptr %8, align 4
  %10 = lshr i32 %9, 12
  %11 = trunc i64 %indvars.iv to i32
  %12 = add i32 %11, 97
  %13 = tail call i32 (ptr, ...) @printf(ptr noundef nonnull dereferenceable(1) @.str.18, i32 noundef %12, i32 noundef %10)
  %indvars.iv.next = add nuw nsw i64 %indvars.iv, 1
  %.val = load ptr, ptr %2, align 8
  %14 = getelementptr i8, ptr %.val, i64 4
  %.val.val = load i32, ptr %14, align 4
  %15 = sext i32 %.val.val to i64
  %16 = icmp slt i64 %indvars.iv.next, %15
  br i1 %16, label %.lr.ph, label %.critedge, !llvm.loop !98

.critedge:                                        ; preds = %.lr.ph, %1
  %putchar = tail call i32 @putchar(i32 10)
  ret void
}